; Function Attrs: mustprogress uwtable
define hidden void @_ZN4cvc58internal5proof11LfscPrinter13printInternalERSoNS0_12NodeTemplateILb1EEE(ptr noundef nonnull align 8 dereferenceable(312) %0, ptr noundef nonnull align 8 dereferenceable(8) %1, ptr noundef readonly captures(none) %2) local_unnamed_addr #3 align 2 personality ptr @__gxx_personality_v0 {
  %4 = alloca %"class.cvc5::internal::LetBinding", align 8
  %5 = alloca %"class.cvc5::internal::NodeTemplate", align 8
  call void @llvm.lifetime.start.p0(i64 472, ptr nonnull %4) #23
  %6 = getelementptr inbounds nuw i8, ptr %0, i64 72
  call void @_ZN4cvc58internal10LetBindingC1ERKNSt7__cxx1112basic_stringIcSt11char_traitsIcESaIcEEEjbb(ptr noundef nonnull align 8 dereferenceable(472) %4, ptr noundef nonnull align 8 dereferenceable(32) %6, i32 noundef 2, i1 noundef zeroext false, i1 noundef zeroext false)
  %7 = load ptr, ptr %2, align 8, !tbaa !13
  store ptr %7, ptr %5, align 8, !tbaa !13
  %8 = load i64, ptr %7, align 8
  %9 = lshr i64 %8, 40
  %10 = trunc nuw nsw i64 %9 to i32
  %11 = and i32 %10, 1048575
  %12 = icmp samesign ult i32 %11, 1048574
  br i1 %12, label %13, label %18, !prof !56

13:                                               ; preds = %3
  %14 = add i64 %8, 1099511627776
  %15 = and i64 %14, 1152920405095219200
  %16 = and i64 %8, -1152920405095219201
  %17 = or disjoint i64 %15, %16
  store i64 %17, ptr %7, align 8
  br label %_ZN4cvc58internal12NodeTemplateILb1EEC2ERKS2_.exit

18:                                               ; preds = %3
  %19 = icmp eq i32 %11, 1048574
  br i1 %19, label %20, label %_ZN4cvc58internal12NodeTemplateILb1EEC2ERKS2_.exit, !prof !55

20:                                               ; preds = %18
  %21 = or i64 %8, 1152920405095219200
  store i64 %21, ptr %7, align 8
  invoke void @_ZN4cvc58internal4expr9NodeValue20markRefCountMaxedOutEv(ptr noundef nonnull align 8 dereferenceable(24) %7)
          to label %_ZN4cvc58internal12NodeTemplateILb1EEC2ERKS2_.exit unwind label %35

_ZN4cvc58internal12NodeTemplateILb1EEC2ERKS2_.exit: ; preds = %18, %13, %20
  invoke void @_ZN4cvc58internal5proof11LfscPrinter13printInternalERSoNS0_12NodeTemplateILb1EEERNS0_10LetBindingEb(ptr nonnull align 8 poison, ptr noundef nonnull align 8 dereferenceable(8) %1, ptr noundef nonnull %5, ptr noundef nonnull align 8 dereferenceable(472) %4, i1 noundef zeroext true)
          to label %22 unwind label %37

22:                                               ; preds = %_ZN4cvc58internal12NodeTemplateILb1EEC2ERKS2_.exit
  %23 = load i64, ptr %7, align 8
  %24 = and i64 %23, 1152920405095219200
  %.not.i.i = icmp eq i64 %24, 1152920405095219200
  br i1 %.not.i.i, label %_ZN4cvc58internal12NodeTemplateILb1EED2Ev.exit, label %25, !prof !55

25:                                               ; preds = %22
  %26 = add i64 %23, 1152920405095219200
  %27 = and i64 %26, 1152920405095219200
  %28 = and i64 %23, -1152920405095219201
  %29 = or disjoint i64 %27, %28
  store i64 %29, ptr %7, align 8
  %30 = icmp eq i64 %27, 0
  br i1 %30, label %31, label %_ZN4cvc58internal12NodeTemplateILb1EED2Ev.exit, !prof !55

31:                                               ; preds = %25
  invoke void @_ZN4cvc58internal4expr9NodeValue15markForDeletionEv(ptr noundef nonnull align 8 dereferenceable(24) %7)
          to label %_ZN4cvc58internal12NodeTemplateILb1EED2Ev.exit unwind label %32

32:                                               ; preds = %31
  %33 = landingpad { ptr, i32 }
          catch ptr null
  %34 = extractvalue { ptr, i32 } %33, 0
  call void @__clang_call_terminate(ptr %34) #25
  unreachable

_ZN4cvc58internal12NodeTemplateILb1EED2Ev.exit:   ; preds = %22, %25, %31
  call void @_ZN4cvc58internal10LetBindingD2Ev(ptr noundef nonnull align 8 dereferenceable(472) %4) #23
  call void @llvm.lifetime.end.p0(i64 472, ptr nonnull %4) #23
  ret void

35:                                               ; preds = %20
  %36 = landingpad { ptr, i32 }
          cleanup
  br label %39

37:                                               ; preds = %_ZN4cvc58internal12NodeTemplateILb1EEC2ERKS2_.exit
  %38 = landingpad { ptr, i32 }
          cleanup
  call void @_ZN4cvc58internal12NodeTemplateILb1EED2Ev(ptr noundef nonnull align 8 dereferenceable(8) %5) #23
  br label %39

39:                                               ; preds = %37, %35
  %.pn = phi { ptr, i32 } [ %38, %37 ], [ %36, %35 ]
  call void @_ZN4cvc58internal10LetBindingD2Ev(ptr noundef nonnull align 8 dereferenceable(472) %4) #23
  call void @llvm.lifetime.end.p0(i64 472, ptr nonnull %4) #23
  resume { ptr, i32 } %.pn
}